target datalayout = "e-m:e-p270:32:32-p271:32:32-p272:64:64-i64:64-i128:128-f80:128-n8:16:32:64-S128"
target triple = "x86_64-pc-linux-gnu"

%struct.ossl_param_st = type { ptr, i32, ptr, i64, i64 }

@libctx = internal global ptr null, align 8
@.str.5 = private unnamed_addr constant [3 x i8] c"EC\00", align 1
@.str.43 = private unnamed_addr constant [6 x i8] c"group\00", align 1
@.str.44 = private unnamed_addr constant [4 x i8] c"pub\00", align 1

; Function Attrs: nounwind uwtable
define internal ptr @new_raw_public_key(ptr noundef %0, ptr noundef %1, i64 noundef %2) #0 {
  %4 = alloca ptr, align 8
  %5 = alloca ptr, align 8
  %6 = alloca ptr, align 8
  %7 = alloca i64, align 8
  %8 = alloca i32, align 4
  %9 = alloca ptr, align 8
  %10 = alloca ptr, align 8
  %11 = alloca [3 x %struct.ossl_param_st], align 16
  %12 = alloca ptr, align 8
  %13 = alloca i32, align 4
  %14 = alloca i32, align 4
  %15 = alloca %struct.ossl_param_st, align 8
  %16 = alloca %struct.ossl_param_st, align 8
  %17 = alloca %struct.ossl_param_st, align 8
  store ptr %0, ptr %5, align 8, !tbaa !4
  store ptr %1, ptr %6, align 8, !tbaa !4
  store i64 %2, ptr %7, align 8, !tbaa !13
  call void @llvm.lifetime.start.p0(i64 4, ptr %8) #6
  store i32 0, ptr %8, align 4, !tbaa !10
  call void @llvm.lifetime.start.p0(i64 8, ptr %9) #6
  call void @llvm.lifetime.start.p0(i64 8, ptr %10) #6
  store ptr null, ptr %10, align 8, !tbaa !17
  call void @llvm.lifetime.start.p0(i64 120, ptr %11) #6
  call void @llvm.lifetime.start.p0(i64 8, ptr %12) #6
  %18 = getelementptr inbounds [3 x %struct.ossl_param_st], ptr %11, i64 0, i64 0
  store ptr %18, ptr %12, align 8, !tbaa !31
  call void @llvm.lifetime.start.p0(i64 4, ptr %13) #6
  %19 = load ptr, ptr %5, align 8, !tbaa !4
  %20 = getelementptr inbounds i8, ptr %19, i64 0
  %21 = load i8, ptr %20, align 1, !tbaa !47
  %22 = sext i8 %21 to i32
  %23 = icmp eq i32 %22, 88
  %24 = zext i1 %23 to i32
  store i32 %24, ptr %13, align 4, !tbaa !10
  %25 = load i32, ptr %13, align 4, !tbaa !10
  %26 = icmp ne i32 %25, 0
  br i1 %26, label %27, label %31

27:                                               ; preds = %3
  %28 = load ptr, ptr @libctx, align 8, !tbaa !15
  %29 = load ptr, ptr %5, align 8, !tbaa !4
  %30 = call ptr @EVP_PKEY_CTX_new_from_name(ptr noundef %28, ptr noundef %29, ptr noundef null)
  store ptr %30, ptr %9, align 8, !tbaa !19
  br label %34

31:                                               ; preds = %3
  %32 = load ptr, ptr @libctx, align 8, !tbaa !15
  %33 = call ptr @EVP_PKEY_CTX_new_from_name(ptr noundef %32, ptr noundef @.str.5, ptr noundef null)
  store ptr %33, ptr %9, align 8, !tbaa !19
  br label %34

34:                                               ; preds = %31, %27
  %35 = load ptr, ptr %9, align 8, !tbaa !19
  %36 = icmp eq ptr %35, null
  br i1 %36, label %37, label %38

37:                                               ; preds = %34
  store ptr null, ptr %4, align 8
  store i32 1, ptr %14, align 4
  br label %70

38:                                               ; preds = %34
  %39 = load i32, ptr %13, align 4, !tbaa !10
  %40 = icmp ne i32 %39, 0
  br i1 %40, label %45, label %41

41:                                               ; preds = %38
  %42 = load ptr, ptr %12, align 8, !tbaa !31
  %43 = getelementptr inbounds nuw %struct.ossl_param_st, ptr %42, i32 1
  store ptr %43, ptr %12, align 8, !tbaa !31
  call void @llvm.lifetime.start.p0(i64 40, ptr %15) #6
  %44 = load ptr, ptr %5, align 8, !tbaa !4
  call void @OSSL_PARAM_construct_utf8_string(ptr dead_on_unwind writable sret(%struct.ossl_param_st) align 8 %15, ptr noundef @.str.43, ptr noundef %44, i64 noundef 0)
  call void @llvm.memcpy.p0.p0.i64(ptr align 8 %42, ptr align 8 %15, i64 40, i1 false), !tbaa.struct !9
  call void @llvm.lifetime.end.p0(i64 40, ptr %15) #6
  br label %45

45:                                               ; preds = %41, %38
  %46 = load ptr, ptr %12, align 8, !tbaa !31
  %47 = getelementptr inbounds nuw %struct.ossl_param_st, ptr %46, i32 1
  store ptr %47, ptr %12, align 8, !tbaa !31
  call void @llvm.lifetime.start.p0(i64 40, ptr %16) #6
  %48 = load ptr, ptr %6, align 8, !tbaa !4
  %49 = load i64, ptr %7, align 8, !tbaa !13
  call void @OSSL_PARAM_construct_octet_string(ptr dead_on_unwind writable sret(%struct.ossl_param_st) align 8 %16, ptr noundef @.str.44, ptr noundef %48, i64 noundef %49)
  call void @llvm.memcpy.p0.p0.i64(ptr align 8 %46, ptr align 8 %16, i64 40, i1 false), !tbaa.struct !9
  call void @llvm.lifetime.end.p0(i64 40, ptr %16) #6
  %50 = load ptr, ptr %12, align 8, !tbaa !31
  call void @llvm.lifetime.start.p0(i64 40, ptr %17) #6
  call void @OSSL_PARAM_construct_end(ptr dead_on_unwind writable sret(%struct.ossl_param_st) align 8 %17)
  call void @llvm.memcpy.p0.p0.i64(ptr align 8 %50, ptr align 8 %17, i64 40, i1 false), !tbaa.struct !9
  call void @llvm.lifetime.end.p0(i64 40, ptr %17) #6
  %51 = load ptr, ptr %9, align 8, !tbaa !19
  %52 = call i32 @EVP_PKEY_fromdata_init(ptr noundef %51)
  %53 = icmp sle i32 %52, 0
  br i1 %53, label %54, label %55

54:                                               ; preds = %45
  br label %62

55:                                               ; preds = %45
  %56 = load ptr, ptr %9, align 8, !tbaa !19
  %57 = getelementptr inbounds [3 x %struct.ossl_param_st], ptr %11, i64 0, i64 0
  %58 = call i32 @EVP_PKEY_fromdata(ptr noundef %56, ptr noundef %10, i32 noundef 134, ptr noundef %57)
  %59 = icmp sle i32 %58, 0
  br i1 %59, label %60, label %61

60:                                               ; preds = %55
  br label %62

61:                                               ; preds = %55
  store i32 1, ptr %8, align 4, !tbaa !10
  br label %62

62:                                               ; preds = %61, %60, %54
  %63 = load i32, ptr %8, align 4, !tbaa !10
  %64 = icmp ne i32 %63, 0
  br i1 %64, label %67, label %65

65:                                               ; preds = %62
  %66 = load ptr, ptr %10, align 8, !tbaa !17
  call void @EVP_PKEY_free(ptr noundef %66)
  store ptr null, ptr %10, align 8, !tbaa !17
  br label %67

67:                                               ; preds = %65, %62
  %68 = load ptr, ptr %9, align 8, !tbaa !19
  call void @EVP_PKEY_CTX_free(ptr noundef %68)
  %69 = load ptr, ptr %10, align 8, !tbaa !17
  store ptr %69, ptr %4, align 8
  store i32 1, ptr %14, align 4
  br label %70

70:                                               ; preds = %67, %37
  call void @llvm.lifetime.end.p0(i64 4, ptr %13) #6
  call void @llvm.lifetime.end.p0(i64 8, ptr %12) #6
  call void @llvm.lifetime.end.p0(i64 120, ptr %11) #6
  call void @llvm.lifetime.end.p0(i64 8, ptr %10) #6
  call void @llvm.lifetime.end.p0(i64 8, ptr %9) #6
  call void @llvm.lifetime.end.p0(i64 4, ptr %8) #6
  %71 = load ptr, ptr %4, align 8
  ret ptr %71
}